target datalayout = "e-m:e-p270:32:32-p271:32:32-p272:64:64-i64:64-i128:128-f80:128-n8:16:32:64-S128"
target triple = "x86_64-pc-linux-gnu"

%"struct.Luau::Location" = type { %"struct.Luau::Position", %"struct.Luau::Position" }
%"struct.Luau::Position" = type { i32, i32 }
%"struct.Luau::Lexeme" = type { i32, %"struct.Luau::Location", i32, %union.anon.24 }
%union.anon.24 = type { ptr }
%"class.std::optional.133" = type { %"struct.std::_Optional_base.134" }
%"struct.std::_Optional_base.134" = type { %"struct.std::_Optional_payload.136" }
%"struct.std::_Optional_payload.136" = type { %"struct.std::_Optional_payload_base.base.138", [3 x i8] }
%"struct.std::_Optional_payload_base.base.138" = type <{ %"union.std::_Optional_payload_base<Luau::AstExprBinary::Op>::_Storage", i8 }>
%"union.std::_Optional_payload_base<Luau::AstExprBinary::Op>::_Storage" = type { i32 }
%"struct.std::_Optional_payload_base.137" = type <{ %"union.std::_Optional_payload_base<Luau::AstExprBinary::Op>::_Storage", i8, [3 x i8] }>

; Function Attrs: mustprogress nounwind uwtable
define linkonce_odr dso_local void @_ZNSt22_Optional_payload_baseIN4Luau13AstExprBinary2OpEE8_StorageIS2_Lb1EEC2Ev(ptr noundef nonnull align 4 dereferenceable(4) %0) unnamed_addr #2 comdat align 2 {
  %2 = alloca ptr, align 8
  store ptr %0, ptr %2, align 8, !tbaa !1378
  ret void
}

; Function Attrs: mustprogress nounwind uwtable
define linkonce_odr dso_local void @_ZNSt22_Optional_payload_baseIN4Luau13AstExprBinary2OpEE8_StorageIS2_Lb1EEC2IJS2_EEESt10in_place_tDpOT_(ptr noundef nonnull align 4 dereferenceable(4) %0, ptr noundef nonnull align 4 dereferenceable(4) %1) unnamed_addr #2 comdat align 2 {
  %3 = alloca ptr, align 8
  %4 = alloca ptr, align 8
  store ptr %0, ptr %3, align 8, !tbaa !1378
  store ptr %1, ptr %4, align 8, !tbaa !567
  %5 = load ptr, ptr %3, align 8
  %6 = load ptr, ptr %4, align 8, !tbaa !567
  %7 = load i32, ptr %6, align 4, !tbaa !380
  store i32 %7, ptr %5, align 4, !tbaa !47
  ret void
}

; Function Attrs: mustprogress nounwind uwtable
define linkonce_odr dso_local void @_ZNSt22_Optional_payload_baseIN4Luau13AstExprBinary2OpEEC2Ev(ptr noundef nonnull align 4 dereferenceable(5) %0) unnamed_addr #2 comdat align 2 {
  %2 = alloca ptr, align 8
  store ptr %0, ptr %2, align 8, !tbaa !1260
  %3 = load ptr, ptr %2, align 8
  %4 = getelementptr inbounds nuw %"struct.std::_Optional_payload_base.137", ptr %3, i32 0, i32 0
  call void @_ZNSt22_Optional_payload_baseIN4Luau13AstExprBinary2OpEE8_StorageIS2_Lb1EEC2Ev(ptr noundef nonnull align 4 dereferenceable(4) %4) #23
  %5 = getelementptr inbounds nuw %"struct.std::_Optional_payload_base.137", ptr %3, i32 0, i32 1
  store i8 0, ptr %5, align 4, !tbaa !1258
  ret void
}

; Function Attrs: mustprogress uwtable
define linkonce_odr dso_local void @_ZNSt22_Optional_payload_baseIN4Luau13AstExprBinary2OpEEC2IJS2_EEESt10in_place_tDpOT_(ptr noundef nonnull align 4 dereferenceable(5) %0, ptr noundef nonnull align 4 dereferenceable(4) %1) unnamed_addr #3 comdat align 2 {
  %3 = alloca ptr, align 8
  %4 = alloca ptr, align 8
  store ptr %0, ptr %3, align 8, !tbaa !1260
  store ptr %1, ptr %4, align 8, !tbaa !567
  %5 = load ptr, ptr %3, align 8
  %6 = getelementptr inbounds nuw %"struct.std::_Optional_payload_base.137", ptr %5, i32 0, i32 0
  %7 = load ptr, ptr %4, align 8, !tbaa !567
  call void @_ZNSt22_Optional_payload_baseIN4Luau13AstExprBinary2OpEE8_StorageIS2_Lb1EEC2IJS2_EEESt10in_place_tDpOT_(ptr noundef nonnull align 4 dereferenceable(4) %6, ptr noundef nonnull align 4 dereferenceable(4) %7)
  %8 = getelementptr inbounds nuw %"struct.std::_Optional_payload_base.137", ptr %5, i32 0, i32 1
  store i8 1, ptr %8, align 4, !tbaa !1258
  ret void
}

; Function Attrs: mustprogress nounwind uwtable
define linkonce_odr dso_local void @_ZNSt17_Optional_payloadIN4Luau13AstExprBinary2OpELb1ELb1ELb1EEC2Ev(ptr noundef nonnull align 4 dereferenceable(5) %0) unnamed_addr #2 comdat align 2 {
  %2 = alloca ptr, align 8
  store ptr %0, ptr %2, align 8, !tbaa !1376
  %3 = load ptr, ptr %2, align 8
  call void @_ZNSt22_Optional_payload_baseIN4Luau13AstExprBinary2OpEEC2Ev(ptr noundef nonnull align 4 dereferenceable(5) %3) #23
  ret void
}

; Function Attrs: inlinehint mustprogress uwtable
define linkonce_odr dso_local void @_ZNSt17_Optional_payloadIN4Luau13AstExprBinary2OpELb1ELb1ELb1EECI2St22_Optional_payload_baseIS2_EIJS2_EEESt10in_place_tDpOT_(ptr noundef nonnull align 4 dereferenceable(5) %0, ptr noundef nonnull align 4 dereferenceable(4) %1) unnamed_addr #10 comdat align 2 {
  %3 = alloca ptr, align 8
  %4 = alloca ptr, align 8
  store ptr %0, ptr %3, align 8, !tbaa !1376
  store ptr %1, ptr %4, align 8, !tbaa !567
  %5 = load ptr, ptr %3, align 8
  %6 = load ptr, ptr %4, align 8
  call void @_ZNSt22_Optional_payload_baseIN4Luau13AstExprBinary2OpEEC2IJS2_EEESt10in_place_tDpOT_(ptr noundef nonnull align 4 dereferenceable(5) %5, ptr noundef nonnull align 4 dereferenceable(4) %6)
  ret void
}

; Function Attrs: mustprogress nounwind uwtable
define linkonce_odr dso_local void @_ZNSt14_Optional_baseIN4Luau13AstExprBinary2OpELb1ELb1EEC2Ev(ptr noundef nonnull align 4 dereferenceable(8) %0) unnamed_addr #2 comdat align 2 {
  %2 = alloca ptr, align 8
  store ptr %0, ptr %2, align 8, !tbaa !1374
  %3 = load ptr, ptr %2, align 8
  %4 = getelementptr inbounds nuw %"struct.std::_Optional_base.134", ptr %3, i32 0, i32 0
  call void @_ZNSt17_Optional_payloadIN4Luau13AstExprBinary2OpELb1ELb1ELb1EEC2Ev(ptr noundef nonnull align 4 dereferenceable(5) %4) #23
  ret void
}

; Function Attrs: noinline noreturn nounwind uwtable
define linkonce_odr hidden void @__clang_call_terminate(ptr noundef %0) #13 comdat {
  %2 = call ptr @__cxa_begin_catch(ptr %0) #23
  call void @_ZSt9terminatev() #24
  unreachable
}

; Function Attrs: mustprogress uwtable
define linkonce_odr dso_local void @_ZNSt14_Optional_baseIN4Luau13AstExprBinary2OpELb1ELb1EEC2IJS2_ETnNSt9enable_ifIX18is_constructible_vIS2_DpT_EEbE4typeELb0EEESt10in_place_tDpOS6_(ptr noundef nonnull align 4 dereferenceable(8) %0, ptr noundef nonnull align 4 dereferenceable(4) %1) unnamed_addr #3 comdat align 2 {
  %3 = alloca ptr, align 8
  %4 = alloca ptr, align 8
  store ptr %0, ptr %3, align 8, !tbaa !1374
  store ptr %1, ptr %4, align 8, !tbaa !567
  %5 = load ptr, ptr %3, align 8
  %6 = getelementptr inbounds nuw %"struct.std::_Optional_base.134", ptr %5, i32 0, i32 0
  %7 = load ptr, ptr %4, align 8, !tbaa !567
  call void @_ZNSt17_Optional_payloadIN4Luau13AstExprBinary2OpELb1ELb1ELb1EECI2St22_Optional_payload_baseIS2_EIJS2_EEESt10in_place_tDpOT_(ptr noundef nonnull align 4 dereferenceable(5) %6, ptr noundef nonnull align 4 dereferenceable(4) %7)
  ret void
}

; Function Attrs: mustprogress nounwind uwtable
define linkonce_odr dso_local void @_ZNSt8optionalIN4Luau13AstExprBinary2OpEEC2ESt9nullopt_t(ptr noundef nonnull align 4 dereferenceable(8) %0) unnamed_addr #2 comdat align 2 {
  %2 = alloca ptr, align 8
  store ptr %0, ptr %2, align 8, !tbaa !438
  %3 = load ptr, ptr %2, align 8
  call void @_ZNSt14_Optional_baseIN4Luau13AstExprBinary2OpELb1ELb1EEC2Ev(ptr noundef nonnull align 4 dereferenceable(8) %3) #23
  ret void
}

; Function Attrs: mustprogress nounwind uwtable
define linkonce_odr dso_local void @_ZNSt8optionalIN4Luau13AstExprBinary2OpEEC2IS2_TnNSt9enable_ifIX7__and_vISt6__not_ISt7is_sameIS3_NSt9remove_cvINSt16remove_referenceIT_E4typeEE4typeEEES6_IS7_ISt10in_place_tSE_EESt16is_constructibleIS2_JSA_EESt14is_convertibleISA_S2_EEEbE4typeELb1EEEOSA_(ptr noundef nonnull align 4 dereferenceable(8) %0, ptr noundef nonnull align 4 dereferenceable(4) %1) unnamed_addr #2 comdat align 2 personality ptr @__gxx_personality_v0 {
  %3 = alloca ptr, align 8
  %4 = alloca ptr, align 8
  store ptr %0, ptr %3, align 8, !tbaa !438
  store ptr %1, ptr %4, align 8, !tbaa !567
  %5 = load ptr, ptr %3, align 8
  %6 = load ptr, ptr %4, align 8, !tbaa !567
  invoke void @_ZNSt14_Optional_baseIN4Luau13AstExprBinary2OpELb1ELb1EEC2IJS2_ETnNSt9enable_ifIX18is_constructible_vIS2_DpT_EEbE4typeELb0EEESt10in_place_tDpOS6_(ptr noundef nonnull align 4 dereferenceable(8) %5, ptr noundef nonnull align 4 dereferenceable(4) %6)
          to label %7 unwind label %8

7:                                                ; preds = %2
  ret void

8:                                                ; preds = %2
  %9 = landingpad { ptr, i32 }
          catch ptr null
  %10 = extractvalue { ptr, i32 } %9, 0
  call void @__clang_call_terminate(ptr %10) #24
  unreachable
}

; Function Attrs: mustprogress nounwind uwtable
define dso_local i64 @_ZN4Luau6Parser13parseBinaryOpERKNS_6LexemeE(ptr noundef nonnull align 8 dereferenceable(32) %0) #2 align 2 {
  %2 = alloca %"class.std::optional.133", align 4
  %3 = alloca ptr, align 8
  %4 = alloca i32, align 4
  %5 = alloca i32, align 4
  %6 = alloca i32, align 4
  %7 = alloca i32, align 4
  %8 = alloca i32, align 4
  %9 = alloca i32, align 4
  %10 = alloca i32, align 4
  %11 = alloca i32, align 4
  %12 = alloca i32, align 4
  %13 = alloca i32, align 4
  %14 = alloca i32, align 4
  %15 = alloca i32, align 4
  %16 = alloca i32, align 4
  %17 = alloca i32, align 4
  %18 = alloca i32, align 4
  %19 = alloca i32, align 4
  store ptr %0, ptr %3, align 8, !tbaa !245
  %20 = load ptr, ptr %3, align 8, !tbaa !245
  %21 = getelementptr inbounds nuw %"struct.Luau::Lexeme", ptr %20, i32 0, i32 0
  %22 = load i32, ptr %21, align 8, !tbaa !87
  %23 = icmp eq i32 %22, 43
  br i1 %23, label %24, label %25

24:                                               ; preds = %1
  call void @llvm.lifetime.start.p0(i64 4, ptr %4) #23
  store i32 0, ptr %4, align 4, !tbaa !380
  call void @_ZNSt8optionalIN4Luau13AstExprBinary2OpEEC2IS2_TnNSt9enable_ifIX7__and_vISt6__not_ISt7is_sameIS3_NSt9remove_cvINSt16remove_referenceIT_E4typeEE4typeEEES6_IS7_ISt10in_place_tSE_EESt16is_constructibleIS2_JSA_EESt14is_convertibleISA_S2_EEEbE4typeELb1EEEOSA_(ptr noundef nonnull align 4 dereferenceable(8) %2, ptr noundef nonnull align 4 dereferenceable(4) %4) #23
  call void @llvm.lifetime.end.p0(i64 4, ptr %4) #23
  br label %116

25:                                               ; preds = %1
  %26 = load ptr, ptr %3, align 8, !tbaa !245
  %27 = getelementptr inbounds nuw %"struct.Luau::Lexeme", ptr %26, i32 0, i32 0
  %28 = load i32, ptr %27, align 8, !tbaa !87
  %29 = icmp eq i32 %28, 45
  br i1 %29, label %30, label %31

30:                                               ; preds = %25
  call void @llvm.lifetime.start.p0(i64 4, ptr %5) #23
  store i32 1, ptr %5, align 4, !tbaa !380
  call void @_ZNSt8optionalIN4Luau13AstExprBinary2OpEEC2IS2_TnNSt9enable_ifIX7__and_vISt6__not_ISt7is_sameIS3_NSt9remove_cvINSt16remove_referenceIT_E4typeEE4typeEEES6_IS7_ISt10in_place_tSE_EESt16is_constructibleIS2_JSA_EESt14is_convertibleISA_S2_EEEbE4typeELb1EEEOSA_(ptr noundef nonnull align 4 dereferenceable(8) %2, ptr noundef nonnull align 4 dereferenceable(4) %5) #23
  call void @llvm.lifetime.end.p0(i64 4, ptr %5) #23
  br label %116

31:                                               ; preds = %25
  %32 = load ptr, ptr %3, align 8, !tbaa !245
  %33 = getelementptr inbounds nuw %"struct.Luau::Lexeme", ptr %32, i32 0, i32 0
  %34 = load i32, ptr %33, align 8, !tbaa !87
  %35 = icmp eq i32 %34, 42
  br i1 %35, label %36, label %37

36:                                               ; preds = %31
  call void @llvm.lifetime.start.p0(i64 4, ptr %6) #23
  store i32 2, ptr %6, align 4, !tbaa !380
  call void @_ZNSt8optionalIN4Luau13AstExprBinary2OpEEC2IS2_TnNSt9enable_ifIX7__and_vISt6__not_ISt7is_sameIS3_NSt9remove_cvINSt16remove_referenceIT_E4typeEE4typeEEES6_IS7_ISt10in_place_tSE_EESt16is_constructibleIS2_JSA_EESt14is_convertibleISA_S2_EEEbE4typeELb1EEEOSA_(ptr noundef nonnull align 4 dereferenceable(8) %2, ptr noundef nonnull align 4 dereferenceable(4) %6) #23
  call void @llvm.lifetime.end.p0(i64 4, ptr %6) #23
  br label %116

37:                                               ; preds = %31
  %38 = load ptr, ptr %3, align 8, !tbaa !245
  %39 = getelementptr inbounds nuw %"struct.Luau::Lexeme", ptr %38, i32 0, i32 0
  %40 = load i32, ptr %39, align 8, !tbaa !87
  %41 = icmp eq i32 %40, 47
  br i1 %41, label %42, label %43

42:                                               ; preds = %37
  call void @llvm.lifetime.start.p0(i64 4, ptr %7) #23
  store i32 3, ptr %7, align 4, !tbaa !380
  call void @_ZNSt8optionalIN4Luau13AstExprBinary2OpEEC2IS2_TnNSt9enable_ifIX7__and_vISt6__not_ISt7is_sameIS3_NSt9remove_cvINSt16remove_referenceIT_E4typeEE4typeEEES6_IS7_ISt10in_place_tSE_EESt16is_constructibleIS2_JSA_EESt14is_convertibleISA_S2_EEEbE4typeELb1EEEOSA_(ptr noundef nonnull align 4 dereferenceable(8) %2, ptr noundef nonnull align 4 dereferenceable(4) %7) #23
  call void @llvm.lifetime.end.p0(i64 4, ptr %7) #23
  br label %116

43:                                               ; preds = %37
  %44 = load ptr, ptr %3, align 8, !tbaa !245
  %45 = getelementptr inbounds nuw %"struct.Luau::Lexeme", ptr %44, i32 0, i32 0
  %46 = load i32, ptr %45, align 8, !tbaa !87
  %47 = icmp eq i32 %46, 265
  br i1 %47, label %48, label %49

48:                                               ; preds = %43
  call void @llvm.lifetime.start.p0(i64 4, ptr %8) #23
  store i32 4, ptr %8, align 4, !tbaa !380
  call void @_ZNSt8optionalIN4Luau13AstExprBinary2OpEEC2IS2_TnNSt9enable_ifIX7__and_vISt6__not_ISt7is_sameIS3_NSt9remove_cvINSt16remove_referenceIT_E4typeEE4typeEEES6_IS7_ISt10in_place_tSE_EESt16is_constructibleIS2_JSA_EESt14is_convertibleISA_S2_EEEbE4typeELb1EEEOSA_(ptr noundef nonnull align 4 dereferenceable(8) %2, ptr noundef nonnull align 4 dereferenceable(4) %8) #23
  call void @llvm.lifetime.end.p0(i64 4, ptr %8) #23
  br label %116

49:                                               ; preds = %43
  %50 = load ptr, ptr %3, align 8, !tbaa !245
  %51 = getelementptr inbounds nuw %"struct.Luau::Lexeme", ptr %50, i32 0, i32 0
  %52 = load i32, ptr %51, align 8, !tbaa !87
  %53 = icmp eq i32 %52, 37
  br i1 %53, label %54, label %55

54:                                               ; preds = %49
  call void @llvm.lifetime.start.p0(i64 4, ptr %9) #23
  store i32 5, ptr %9, align 4, !tbaa !380
  call void @_ZNSt8optionalIN4Luau13AstExprBinary2OpEEC2IS2_TnNSt9enable_ifIX7__and_vISt6__not_ISt7is_sameIS3_NSt9remove_cvINSt16remove_referenceIT_E4typeEE4typeEEES6_IS7_ISt10in_place_tSE_EESt16is_constructibleIS2_JSA_EESt14is_convertibleISA_S2_EEEbE4typeELb1EEEOSA_(ptr noundef nonnull align 4 dereferenceable(8) %2, ptr noundef nonnull align 4 dereferenceable(4) %9) #23
  call void @llvm.lifetime.end.p0(i64 4, ptr %9) #23
  br label %116

55:                                               ; preds = %49
  %56 = load ptr, ptr %3, align 8, !tbaa !245
  %57 = getelementptr inbounds nuw %"struct.Luau::Lexeme", ptr %56, i32 0, i32 0
  %58 = load i32, ptr %57, align 8, !tbaa !87
  %59 = icmp eq i32 %58, 94
  br i1 %59, label %60, label %61

60:                                               ; preds = %55
  call void @llvm.lifetime.start.p0(i64 4, ptr %10) #23
  store i32 6, ptr %10, align 4, !tbaa !380
  call void @_ZNSt8optionalIN4Luau13AstExprBinary2OpEEC2IS2_TnNSt9enable_ifIX7__and_vISt6__not_ISt7is_sameIS3_NSt9remove_cvINSt16remove_referenceIT_E4typeEE4typeEEES6_IS7_ISt10in_place_tSE_EESt16is_constructibleIS2_JSA_EESt14is_convertibleISA_S2_EEEbE4typeELb1EEEOSA_(ptr noundef nonnull align 4 dereferenceable(8) %2, ptr noundef nonnull align 4 dereferenceable(4) %10) #23
  call void @llvm.lifetime.end.p0(i64 4, ptr %10) #23
  br label %116

61:                                               ; preds = %55
  %62 = load ptr, ptr %3, align 8, !tbaa !245
  %63 = getelementptr inbounds nuw %"struct.Luau::Lexeme", ptr %62, i32 0, i32 0
  %64 = load i32, ptr %63, align 8, !tbaa !87
  %65 = icmp eq i32 %64, 261
  br i1 %65, label %66, label %67

66:                                               ; preds = %61
  call void @llvm.lifetime.start.p0(i64 4, ptr %11) #23
  store i32 7, ptr %11, align 4, !tbaa !380
  call void @_ZNSt8optionalIN4Luau13AstExprBinary2OpEEC2IS2_TnNSt9enable_ifIX7__and_vISt6__not_ISt7is_sameIS3_NSt9remove_cvINSt16remove_referenceIT_E4typeEE4typeEEES6_IS7_ISt10in_place_tSE_EESt16is_constructibleIS2_JSA_EESt14is_convertibleISA_S2_EEEbE4typeELb1EEEOSA_(ptr noundef nonnull align 4 dereferenceable(8) %2, ptr noundef nonnull align 4 dereferenceable(4) %11) #23
  call void @llvm.lifetime.end.p0(i64 4, ptr %11) #23
  br label %116

67:                                               ; preds = %61
  %68 = load ptr, ptr %3, align 8, !tbaa !245
  %69 = getelementptr inbounds nuw %"struct.Luau::Lexeme", ptr %68, i32 0, i32 0
  %70 = load i32, ptr %69, align 8, !tbaa !87
  %71 = icmp eq i32 %70, 260
  br i1 %71, label %72, label %73

72:                                               ; preds = %67
  call void @llvm.lifetime.start.p0(i64 4, ptr %12) #23
  store i32 8, ptr %12, align 4, !tbaa !380
  call void @_ZNSt8optionalIN4Luau13AstExprBinary2OpEEC2IS2_TnNSt9enable_ifIX7__and_vISt6__not_ISt7is_sameIS3_NSt9remove_cvINSt16remove_referenceIT_E4typeEE4typeEEES6_IS7_ISt10in_place_tSE_EESt16is_constructibleIS2_JSA_EESt14is_convertibleISA_S2_EEEbE4typeELb1EEEOSA_(ptr noundef nonnull align 4 dereferenceable(8) %2, ptr noundef nonnull align 4 dereferenceable(4) %12) #23
  call void @llvm.lifetime.end.p0(i64 4, ptr %12) #23
  br label %116

73:                                               ; preds = %67
  %74 = load ptr, ptr %3, align 8, !tbaa !245
  %75 = getelementptr inbounds nuw %"struct.Luau::Lexeme", ptr %74, i32 0, i32 0
  %76 = load i32, ptr %75, align 8, !tbaa !87
  %77 = icmp eq i32 %76, 257
  br i1 %77, label %78, label %79

78:                                               ; preds = %73
  call void @llvm.lifetime.start.p0(i64 4, ptr %13) #23
  store i32 9, ptr %13, align 4, !tbaa !380
  call void @_ZNSt8optionalIN4Luau13AstExprBinary2OpEEC2IS2_TnNSt9enable_ifIX7__and_vISt6__not_ISt7is_sameIS3_NSt9remove_cvINSt16remove_referenceIT_E4typeEE4typeEEES6_IS7_ISt10in_place_tSE_EESt16is_constructibleIS2_JSA_EESt14is_convertibleISA_S2_EEEbE4typeELb1EEEOSA_(ptr noundef nonnull align 4 dereferenceable(8) %2, ptr noundef nonnull align 4 dereferenceable(4) %13) #23
  call void @llvm.lifetime.end.p0(i64 4, ptr %13) #23
  br label %116

79:                                               ; preds = %73
  %80 = load ptr, ptr %3, align 8, !tbaa !245
  %81 = getelementptr inbounds nuw %"struct.Luau::Lexeme", ptr %80, i32 0, i32 0
  %82 = load i32, ptr %81, align 8, !tbaa !87
  %83 = icmp eq i32 %82, 60
  br i1 %83, label %84, label %85

84:                                               ; preds = %79
  call void @llvm.lifetime.start.p0(i64 4, ptr %14) #23
  store i32 10, ptr %14, align 4, !tbaa !380
  call void @_ZNSt8optionalIN4Luau13AstExprBinary2OpEEC2IS2_TnNSt9enable_ifIX7__and_vISt6__not_ISt7is_sameIS3_NSt9remove_cvINSt16remove_referenceIT_E4typeEE4typeEEES6_IS7_ISt10in_place_tSE_EESt16is_constructibleIS2_JSA_EESt14is_convertibleISA_S2_EEEbE4typeELb1EEEOSA_(ptr noundef nonnull align 4 dereferenceable(8) %2, ptr noundef nonnull align 4 dereferenceable(4) %14) #23
  call void @llvm.lifetime.end.p0(i64 4, ptr %14) #23
  br label %116

85:                                               ; preds = %79
  %86 = load ptr, ptr %3, align 8, !tbaa !245
  %87 = getelementptr inbounds nuw %"struct.Luau::Lexeme", ptr %86, i32 0, i32 0
  %88 = load i32, ptr %87, align 8, !tbaa !87
  %89 = icmp eq i32 %88, 258
  br i1 %89, label %90, label %91

90:                                               ; preds = %85
  call void @llvm.lifetime.start.p0(i64 4, ptr %15) #23
  store i32 11, ptr %15, align 4, !tbaa !380
  call void @_ZNSt8optionalIN4Luau13AstExprBinary2OpEEC2IS2_TnNSt9enable_ifIX7__and_vISt6__not_ISt7is_sameIS3_NSt9remove_cvINSt16remove_referenceIT_E4typeEE4typeEEES6_IS7_ISt10in_place_tSE_EESt16is_constructibleIS2_JSA_EESt14is_convertibleISA_S2_EEEbE4typeELb1EEEOSA_(ptr noundef nonnull align 4 dereferenceable(8) %2, ptr noundef nonnull align 4 dereferenceable(4) %15) #23
  call void @llvm.lifetime.end.p0(i64 4, ptr %15) #23
  br label %116

91:                                               ; preds = %85
  %92 = load ptr, ptr %3, align 8, !tbaa !245
  %93 = getelementptr inbounds nuw %"struct.Luau::Lexeme", ptr %92, i32 0, i32 0
  %94 = load i32, ptr %93, align 8, !tbaa !87
  %95 = icmp eq i32 %94, 62
  br i1 %95, label %96, label %97

96:                                               ; preds = %91
  call void @llvm.lifetime.start.p0(i64 4, ptr %16) #23
  store i32 12, ptr %16, align 4, !tbaa !380
  call void @_ZNSt8optionalIN4Luau13AstExprBinary2OpEEC2IS2_TnNSt9enable_ifIX7__and_vISt6__not_ISt7is_sameIS3_NSt9remove_cvINSt16remove_referenceIT_E4typeEE4typeEEES6_IS7_ISt10in_place_tSE_EESt16is_constructibleIS2_JSA_EESt14is_convertibleISA_S2_EEEbE4typeELb1EEEOSA_(ptr noundef nonnull align 4 dereferenceable(8) %2, ptr noundef nonnull align 4 dereferenceable(4) %16) #23
  call void @llvm.lifetime.end.p0(i64 4, ptr %16) #23
  br label %116

97:                                               ; preds = %91
  %98 = load ptr, ptr %3, align 8, !tbaa !245
  %99 = getelementptr inbounds nuw %"struct.Luau::Lexeme", ptr %98, i32 0, i32 0
  %100 = load i32, ptr %99, align 8, !tbaa !87
  %101 = icmp eq i32 %100, 259
  br i1 %101, label %102, label %103

102:                                              ; preds = %97
  call void @llvm.lifetime.start.p0(i64 4, ptr %17) #23
  store i32 13, ptr %17, align 4, !tbaa !380
  call void @_ZNSt8optionalIN4Luau13AstExprBinary2OpEEC2IS2_TnNSt9enable_ifIX7__and_vISt6__not_ISt7is_sameIS3_NSt9remove_cvINSt16remove_referenceIT_E4typeEE4typeEEES6_IS7_ISt10in_place_tSE_EESt16is_constructibleIS2_JSA_EESt14is_convertibleISA_S2_EEEbE4typeELb1EEEOSA_(ptr noundef nonnull align 4 dereferenceable(8) %2, ptr noundef nonnull align 4 dereferenceable(4) %17) #23
  call void @llvm.lifetime.end.p0(i64 4, ptr %17) #23
  br label %116

103:                                              ; preds = %97
  %104 = load ptr, ptr %3, align 8, !tbaa !245
  %105 = getelementptr inbounds nuw %"struct.Luau::Lexeme", ptr %104, i32 0, i32 0
  %106 = load i32, ptr %105, align 8, !tbaa !87
  %107 = icmp eq i32 %106, 290
  br i1 %107, label %108, label %109

108:                                              ; preds = %103
  call void @llvm.lifetime.start.p0(i64 4, ptr %18) #23
  store i32 14, ptr %18, align 4, !tbaa !380
  call void @_ZNSt8optionalIN4Luau13AstExprBinary2OpEEC2IS2_TnNSt9enable_ifIX7__and_vISt6__not_ISt7is_sameIS3_NSt9remove_cvINSt16remove_referenceIT_E4typeEE4typeEEES6_IS7_ISt10in_place_tSE_EESt16is_constructibleIS2_JSA_EESt14is_convertibleISA_S2_EEEbE4typeELb1EEEOSA_(ptr noundef nonnull align 4 dereferenceable(8) %2, ptr noundef nonnull align 4 dereferenceable(4) %18) #23
  call void @llvm.lifetime.end.p0(i64 4, ptr %18) #23
  br label %116

109:                                              ; preds = %103
  %110 = load ptr, ptr %3, align 8, !tbaa !245
  %111 = getelementptr inbounds nuw %"struct.Luau::Lexeme", ptr %110, i32 0, i32 0
  %112 = load i32, ptr %111, align 8, !tbaa !87
  %113 = icmp eq i32 %112, 304
  br i1 %113, label %114, label %115

114:                                              ; preds = %109
  call void @llvm.lifetime.start.p0(i64 4, ptr %19) #23
  store i32 15, ptr %19, align 4, !tbaa !380
  call void @_ZNSt8optionalIN4Luau13AstExprBinary2OpEEC2IS2_TnNSt9enable_ifIX7__and_vISt6__not_ISt7is_sameIS3_NSt9remove_cvINSt16remove_referenceIT_E4typeEE4typeEEES6_IS7_ISt10in_place_tSE_EESt16is_constructibleIS2_JSA_EESt14is_convertibleISA_S2_EEEbE4typeELb1EEEOSA_(ptr noundef nonnull align 4 dereferenceable(8) %2, ptr noundef nonnull align 4 dereferenceable(4) %19) #23
  call void @llvm.lifetime.end.p0(i64 4, ptr %19) #23
  br label %116

115:                                              ; preds = %109
  call void @_ZNSt8optionalIN4Luau13AstExprBinary2OpEEC2ESt9nullopt_t(ptr noundef nonnull align 4 dereferenceable(8) %2) #23
  br label %116

116:                                              ; preds = %115, %114, %108, %102, %96, %90, %84, %78, %72, %66, %60, %54, %48, %42, %36, %30, %24
  %117 = getelementptr inbounds nuw %"class.std::optional.133", ptr %2, i32 0, i32 0
  %118 = getelementptr inbounds nuw %"struct.std::_Optional_base.134", ptr %117, i32 0, i32 0
  %119 = load i64, ptr %118, align 4
  ret i64 %119
}