; Function Attrs: mustprogress nofree norecurse nosync nounwind willreturn memory(argmem: read) uwtable
define dso_local range(i64 0, 4294967312) i64 @_ZN4Luau6Parser13parseBinaryOpERKNS_6LexemeE(ptr noundef nonnull readonly align 8 captures(none) dereferenceable(32) %0) local_unnamed_addr #5 align 2 personality ptr @__gxx_personality_v0 {
  %2 = load i32, ptr %0, align 8, !tbaa !79
  switch i32 %2, label %18 [
    i32 43, label %19
    i32 45, label %3
    i32 42, label %4
    i32 47, label %5
    i32 265, label %6
    i32 37, label %7
    i32 94, label %8
    i32 261, label %9
    i32 260, label %10
    i32 257, label %11
    i32 60, label %12
    i32 258, label %13
    i32 62, label %14
    i32 259, label %15
    i32 290, label %16
    i32 304, label %17
  ]

3:                                                ; preds = %1
  br label %19

4:                                                ; preds = %1
  br label %19

5:                                                ; preds = %1
  br label %19

6:                                                ; preds = %1
  br label %19

7:                                                ; preds = %1
  br label %19

8:                                                ; preds = %1
  br label %19

9:                                                ; preds = %1
  br label %19

10:                                               ; preds = %1
  br label %19

11:                                               ; preds = %1
  br label %19

12:                                               ; preds = %1
  br label %19

13:                                               ; preds = %1
  br label %19

14:                                               ; preds = %1
  br label %19

15:                                               ; preds = %1
  br label %19

16:                                               ; preds = %1
  br label %19

17:                                               ; preds = %1
  br label %19

18:                                               ; preds = %1
  br label %19

19:                                               ; preds = %1, %18, %17, %16, %15, %14, %13, %12, %11, %10, %9, %8, %7, %6, %5, %4, %3
  %.sroa.0.0 = phi i64 [ 0, %18 ], [ 15, %17 ], [ 14, %16 ], [ 13, %15 ], [ 12, %14 ], [ 11, %13 ], [ 10, %12 ], [ 9, %11 ], [ 8, %10 ], [ 7, %9 ], [ 6, %8 ], [ 5, %7 ], [ 4, %6 ], [ 3, %5 ], [ 2, %4 ], [ 1, %3 ], [ 0, %1 ]
  %.sroa.17.0 = phi i64 [ 0, %18 ], [ 4294967296, %17 ], [ 4294967296, %16 ], [ 4294967296, %15 ], [ 4294967296, %14 ], [ 4294967296, %13 ], [ 4294967296, %12 ], [ 4294967296, %11 ], [ 4294967296, %10 ], [ 4294967296, %9 ], [ 4294967296, %8 ], [ 4294967296, %7 ], [ 4294967296, %6 ], [ 4294967296, %5 ], [ 4294967296, %4 ], [ 4294967296, %3 ], [ 4294967296, %1 ]
  %.sroa.0.0.insert.insert = or disjoint i64 %.sroa.17.0, %.sroa.0.0
  ret i64 %.sroa.0.0.insert.insert
}